; ModuleID = '30/3080.c'
source_filename = "30/3080.c"
target datalayout = "e-m:e-p270:32:32-p271:32:32-p272:64:64-i64:64-f80:128-n8:16:32:64-S128"
target triple = "x86_64-pc-linux-gnu"

@.str = private unnamed_addr constant [3 x i8] c"%d\00", align 1

; Function Attrs: noinline nounwind uwtable
define dso_local i32 @main() #0 {
  %1 = alloca i32, align 4
  %2 = alloca i32, align 4
  %3 = alloca i32, align 4
  %4 = alloca i32, align 4
  %5 = alloca i32, align 4
  %6 = alloca i32, align 4
  store i32 0, i32* %1, align 4
  %7 = call i32 (i8*, ...) @__isoc99_scanf(i8* getelementptr inbounds ([3 x i8], [3 x i8]* @.str, i64 0, i64 0), i32* %2)
  store i32 0, i32* %6, align 4
  store i32 1, i32* %4, align 4
  br label %8

8:                                                ; preds = %45, %0
  %9 = load i32, i32* %4, align 4
  %10 = load i32, i32* %2, align 4
  %11 = icmp sle i32 %9, %10
  br i1 %11, label %12, label %48

12:                                               ; preds = %8
  store i32 0, i32* %5, align 4
  %13 = load i32, i32* %4, align 4
  %14 = srem i32 %13, 7
  %15 = icmp eq i32 %14, 0
  br i1 %15, label %16, label %17

16:                                               ; preds = %12
  store i32 1, i32* %5, align 4
  br label %45

17:                                               ; preds = %12
  %18 = load i32, i32* %5, align 4
  %19 = icmp eq i32 %18, 0
  br i1 %19, label %20, label %35

20:                                               ; preds = %17
  %21 = load i32, i32* %4, align 4
  store i32 %21, i32* %3, align 4
  br label %22

22:                                               ; preds = %33, %20
  %23 = load i32, i32* %3, align 4
  %24 = icmp sgt i32 %23, 0
  br i1 %24, label %25, label %34

25:                                               ; preds = %22
  %26 = load i32, i32* %3, align 4
  %27 = srem i32 %26, 10
  %28 = icmp eq i32 %27, 7
  br i1 %28, label %29, label %30

29:                                               ; preds = %25
  store i32 1, i32* %5, align 4
  br label %34

30:                                               ; preds = %25
  %31 = load i32, i32* %3, align 4
  %32 = sdiv i32 %31, 10
  store i32 %32, i32* %3, align 4
  br label %33

33:                                               ; preds = %30
  br label %22

34:                                               ; preds = %29, %22
  br label %35

35:                                               ; preds = %34, %17
  %36 = load i32, i32* %5, align 4
  %37 = icmp eq i32 %36, 0
  br i1 %37, label %38, label %44

38:                                               ; preds = %35
  %39 = load i32, i32* %4, align 4
  %40 = load i32, i32* %4, align 4
  %41 = mul nsw i32 %39, %40
  %42 = load i32, i32* %6, align 4
  %43 = add nsw i32 %42, %41
  store i32 %43, i32* %6, align 4
  br label %44

44:                                               ; preds = %38, %35
  br label %45

45:                                               ; preds = %44, %16
  %46 = load i32, i32* %4, align 4
  %47 = add nsw i32 %46, 1
  store i32 %47, i32* %4, align 4
  br label %8

48:                                               ; preds = %8
  %49 = load i32, i32* %6, align 4
  %50 = call i32 (i8*, ...) @printf(i8* getelementptr inbounds ([3 x i8], [3 x i8]* @.str, i64 0, i64 0), i32 %49)
  ret i32 0
}

declare dso_local i32 @__isoc99_scanf(i8*, ...) #1

declare dso_local i32 @printf(i8*, ...) #1


!llvm.module.flags = !{!0}
!llvm.ident = !{!1}

!0 = !{i32 1, !"wchar_size", i32 4}
!1 = !{!"clang version 10.0.0-4ubuntu1 "}
